target datalayout = "e-m:e-p270:32:32-p271:32:32-p272:64:64-i64:64-i128:128-f80:128-n8:16:32:64-S128"
target triple = "x86_64-unknown-linux-gnu"

%struct.of_dpa_flow_action = type { i32, %struct.anon.11, %struct.anon.12 }
%struct.anon.11 = type { i32, i32, i16 }
%struct.anon.12 = type { i16, i32, i8, i16 }
%struct.of_dpa_flow_context = type { i32, i32, ptr, i32, %struct.eth_header, %struct.vlan_header, %struct.vlan_header, ptr, %struct.of_dpa_flow_pkt_fields, %struct.of_dpa_flow_action }
%struct.eth_header = type { [6 x i8], [6 x i8], i16 }
%struct.vlan_header = type { i16, i16 }
%struct.of_dpa_flow_pkt_fields = type { i32, ptr, ptr, ptr, ptr, ptr, ptr, ptr }
%struct.iovec = type { ptr, i64 }

@.str.5 = private unnamed_addr constant [39 x i8] c"flow_pkt_parse underrun on eth_header\0A\00", align 1
@.str.6 = private unnamed_addr constant [40 x i8] c"flow_pkt_parse underrun on vlan_header\0A\00", align 1
@.str.7 = private unnamed_addr constant [38 x i8] c"flow_pkt_parse underrun on ip_header\0A\00", align 1
@.str.8 = private unnamed_addr constant [39 x i8] c"flow_pkt_parse underrun on ip6_header\0A\00", align 1

; Function Attrs: nounwind sspstrong uwtable
define internal void @of_dpa_flow_pkt_hdr_reset(ptr noundef %fc) #0 {
entry:
  %fc.addr = alloca ptr, align 8
  %fields = alloca ptr, align 8
  store ptr %fc, ptr %fc.addr, align 8
  %0 = load ptr, ptr %fc.addr, align 8
  %fields1 = getelementptr inbounds %struct.of_dpa_flow_context, ptr %0, i32 0, i32 8
  store ptr %fields1, ptr %fields, align 8
  %1 = load ptr, ptr %fields, align 8
  %ethhdr = getelementptr inbounds %struct.of_dpa_flow_pkt_fields, ptr %1, i32 0, i32 1
  %2 = load ptr, ptr %ethhdr, align 8
  %3 = load ptr, ptr %fc.addr, align 8
  %iov = getelementptr inbounds %struct.of_dpa_flow_context, ptr %3, i32 0, i32 2
  %4 = load ptr, ptr %iov, align 8
  %arrayidx = getelementptr %struct.iovec, ptr %4, i64 0
  %iov_base = getelementptr inbounds %struct.iovec, ptr %arrayidx, i32 0, i32 0
  store ptr %2, ptr %iov_base, align 8
  %5 = load ptr, ptr %fc.addr, align 8
  %iov2 = getelementptr inbounds %struct.of_dpa_flow_context, ptr %5, i32 0, i32 2
  %6 = load ptr, ptr %iov2, align 8
  %arrayidx3 = getelementptr %struct.iovec, ptr %6, i64 0
  %iov_len = getelementptr inbounds %struct.iovec, ptr %arrayidx3, i32 0, i32 1
  store i64 14, ptr %iov_len, align 8
  %7 = load ptr, ptr %fields, align 8
  %vlanhdr = getelementptr inbounds %struct.of_dpa_flow_pkt_fields, ptr %7, i32 0, i32 3
  %8 = load ptr, ptr %vlanhdr, align 8
  %9 = load ptr, ptr %fc.addr, align 8
  %iov4 = getelementptr inbounds %struct.of_dpa_flow_context, ptr %9, i32 0, i32 2
  %10 = load ptr, ptr %iov4, align 8
  %arrayidx5 = getelementptr %struct.iovec, ptr %10, i64 1
  %iov_base6 = getelementptr inbounds %struct.iovec, ptr %arrayidx5, i32 0, i32 0
  store ptr %8, ptr %iov_base6, align 8
  %11 = load ptr, ptr %fields, align 8
  %vlanhdr7 = getelementptr inbounds %struct.of_dpa_flow_pkt_fields, ptr %11, i32 0, i32 3
  %12 = load ptr, ptr %vlanhdr7, align 8
  %tobool = icmp ne ptr %12, null
  %cond = select i1 %tobool, i64 4, i64 0
  %13 = load ptr, ptr %fc.addr, align 8
  %iov8 = getelementptr inbounds %struct.of_dpa_flow_context, ptr %13, i32 0, i32 2
  %14 = load ptr, ptr %iov8, align 8
  %arrayidx9 = getelementptr %struct.iovec, ptr %14, i64 1
  %iov_len10 = getelementptr inbounds %struct.iovec, ptr %arrayidx9, i32 0, i32 1
  store i64 %cond, ptr %iov_len10, align 8
  ret void
}

; Function Attrs: nounwind sspstrong uwtable
define internal i32 @DPRINTF(ptr noundef %fmt, ...) #0 {
entry:
  %fmt.addr = alloca ptr, align 8
  store ptr %fmt, ptr %fmt.addr, align 8
  ret i32 0
}

; Function Attrs: nounwind sspstrong uwtable
define internal void @g_autoptr_cleanup_generic_gfree(ptr noundef %p) #0 {
entry:
  %p.addr = alloca ptr, align 8
  %pp = alloca ptr, align 8
  store ptr %p, ptr %p.addr, align 8
  %0 = load ptr, ptr %p.addr, align 8
  store ptr %0, ptr %pp, align 8
  %1 = load ptr, ptr %pp, align 8
  %2 = load ptr, ptr %1, align 8
  call void @g_free(ptr noundef %2)
  ret void
}

; Function Attrs: nounwind sspstrong uwtable
define internal void @of_dpa_flow_pkt_parse(ptr noundef %fc, ptr noundef %iov, i32 noundef %iovcnt) #0 {
entry:
  %fc.addr = alloca ptr, align 8
  %iov.addr = alloca ptr, align 8
  %iovcnt.addr = alloca i32, align 4
  %fields = alloca ptr, align 8
  %sofar = alloca i64, align 8
  %i = alloca i32, align 4
  store ptr %fc, ptr %fc.addr, align 8
  store ptr %iov, ptr %iov.addr, align 8
  store i32 %iovcnt, ptr %iovcnt.addr, align 4
  %0 = load ptr, ptr %fc.addr, align 8
  %fields1 = getelementptr inbounds %struct.of_dpa_flow_context, ptr %0, i32 0, i32 8
  store ptr %fields1, ptr %fields, align 8
  store i64 0, ptr %sofar, align 8
  %1 = load i64, ptr %sofar, align 8
  %add = add i64 %1, 14
  store i64 %add, ptr %sofar, align 8
  %2 = load ptr, ptr %iov.addr, align 8
  %iov_len = getelementptr inbounds %struct.iovec, ptr %2, i32 0, i32 1
  %3 = load i64, ptr %iov_len, align 8
  %4 = load i64, ptr %sofar, align 8
  %cmp = icmp ult i64 %3, %4
  br i1 %cmp, label %if.then, label %if.end

if.then:                                          ; preds = %entry
  %call = call i32 (ptr, ...) @DPRINTF(ptr noundef @.str.5)
  br label %return

if.end:                                           ; preds = %entry
  %5 = load ptr, ptr %iov.addr, align 8
  %iov_base = getelementptr inbounds %struct.iovec, ptr %5, i32 0, i32 0
  %6 = load ptr, ptr %iov_base, align 8
  %7 = load ptr, ptr %fields, align 8
  %ethhdr = getelementptr inbounds %struct.of_dpa_flow_pkt_fields, ptr %7, i32 0, i32 1
  store ptr %6, ptr %ethhdr, align 8
  %8 = load ptr, ptr %fields, align 8
  %ethhdr2 = getelementptr inbounds %struct.of_dpa_flow_pkt_fields, ptr %8, i32 0, i32 1
  %9 = load ptr, ptr %ethhdr2, align 8
  %h_proto = getelementptr inbounds %struct.eth_header, ptr %9, i32 0, i32 2
  %10 = load ptr, ptr %fields, align 8
  %h_proto3 = getelementptr inbounds %struct.of_dpa_flow_pkt_fields, ptr %10, i32 0, i32 2
  store ptr %h_proto, ptr %h_proto3, align 8
  %11 = load ptr, ptr %fields, align 8
  %h_proto4 = getelementptr inbounds %struct.of_dpa_flow_pkt_fields, ptr %11, i32 0, i32 2
  %12 = load ptr, ptr %h_proto4, align 8
  %13 = load i16, ptr %12, align 2
  %call5 = call zeroext i16 @ntohs(i16 noundef zeroext %13) #11
  %conv = zext i16 %call5 to i32
  %cmp6 = icmp eq i32 %conv, 33024
  br i1 %cmp6, label %if.then8, label %if.end20

if.then8:                                         ; preds = %if.end
  %14 = load i64, ptr %sofar, align 8
  %add9 = add i64 %14, 4
  store i64 %add9, ptr %sofar, align 8
  %15 = load ptr, ptr %iov.addr, align 8
  %iov_len10 = getelementptr inbounds %struct.iovec, ptr %15, i32 0, i32 1
  %16 = load i64, ptr %iov_len10, align 8
  %17 = load i64, ptr %sofar, align 8
  %cmp11 = icmp ult i64 %16, %17
  br i1 %cmp11, label %if.then13, label %if.end15

if.then13:                                        ; preds = %if.then8
  %call14 = call i32 (ptr, ...) @DPRINTF(ptr noundef @.str.6)
  br label %return

if.end15:                                         ; preds = %if.then8
  %18 = load ptr, ptr %fields, align 8
  %ethhdr16 = getelementptr inbounds %struct.of_dpa_flow_pkt_fields, ptr %18, i32 0, i32 1
  %19 = load ptr, ptr %ethhdr16, align 8
  %add.ptr = getelementptr %struct.eth_header, ptr %19, i64 1
  %20 = load ptr, ptr %fields, align 8
  %vlanhdr = getelementptr inbounds %struct.of_dpa_flow_pkt_fields, ptr %20, i32 0, i32 3
  store ptr %add.ptr, ptr %vlanhdr, align 8
  %21 = load ptr, ptr %fields, align 8
  %vlanhdr17 = getelementptr inbounds %struct.of_dpa_flow_pkt_fields, ptr %21, i32 0, i32 3
  %22 = load ptr, ptr %vlanhdr17, align 8
  %h_proto18 = getelementptr inbounds %struct.vlan_header, ptr %22, i32 0, i32 1
  %23 = load ptr, ptr %fields, align 8
  %h_proto19 = getelementptr inbounds %struct.of_dpa_flow_pkt_fields, ptr %23, i32 0, i32 2
  store ptr %h_proto18, ptr %h_proto19, align 8
  br label %if.end20

if.end20:                                         ; preds = %if.end15, %if.end
  %24 = load ptr, ptr %fields, align 8
  %h_proto21 = getelementptr inbounds %struct.of_dpa_flow_pkt_fields, ptr %24, i32 0, i32 2
  %25 = load ptr, ptr %h_proto21, align 8
  %26 = load i16, ptr %25, align 2
  %call22 = call zeroext i16 @ntohs(i16 noundef zeroext %26) #11
  %conv23 = zext i16 %call22 to i32
  switch i32 %conv23, label %sw.epilog [
    i32 2048, label %sw.bb
    i32 34525, label %sw.bb33
  ]

sw.bb:                                            ; preds = %if.end20
  %27 = load i64, ptr %sofar, align 8
  %add24 = add i64 %27, 20
  store i64 %add24, ptr %sofar, align 8
  %28 = load ptr, ptr %iov.addr, align 8
  %iov_len25 = getelementptr inbounds %struct.iovec, ptr %28, i32 0, i32 1
  %29 = load i64, ptr %iov_len25, align 8
  %30 = load i64, ptr %sofar, align 8
  %cmp26 = icmp ult i64 %29, %30
  br i1 %cmp26, label %if.then28, label %if.end30

if.then28:                                        ; preds = %sw.bb
  %call29 = call i32 (ptr, ...) @DPRINTF(ptr noundef @.str.7)
  br label %return

if.end30:                                         ; preds = %sw.bb
  %31 = load ptr, ptr %fields, align 8
  %h_proto31 = getelementptr inbounds %struct.of_dpa_flow_pkt_fields, ptr %31, i32 0, i32 2
  %32 = load ptr, ptr %h_proto31, align 8
  %add.ptr32 = getelementptr i16, ptr %32, i64 1
  %33 = load ptr, ptr %fields, align 8
  %ipv4hdr = getelementptr inbounds %struct.of_dpa_flow_pkt_fields, ptr %33, i32 0, i32 4
  store ptr %add.ptr32, ptr %ipv4hdr, align 8
  br label %sw.epilog

sw.bb33:                                          ; preds = %if.end20
  %34 = load i64, ptr %sofar, align 8
  %add34 = add i64 %34, 40
  store i64 %add34, ptr %sofar, align 8
  %35 = load ptr, ptr %iov.addr, align 8
  %iov_len35 = getelementptr inbounds %struct.iovec, ptr %35, i32 0, i32 1
  %36 = load i64, ptr %iov_len35, align 8
  %37 = load i64, ptr %sofar, align 8
  %cmp36 = icmp ult i64 %36, %37
  br i1 %cmp36, label %if.then38, label %if.end40

if.then38:                                        ; preds = %sw.bb33
  %call39 = call i32 (ptr, ...) @DPRINTF(ptr noundef @.str.8)
  br label %return

if.end40:                                         ; preds = %sw.bb33
  %38 = load ptr, ptr %fields, align 8
  %h_proto41 = getelementptr inbounds %struct.of_dpa_flow_pkt_fields, ptr %38, i32 0, i32 2
  %39 = load ptr, ptr %h_proto41, align 8
  %add.ptr42 = getelementptr i16, ptr %39, i64 1
  %40 = load ptr, ptr %fields, align 8
  %ipv6hdr = getelementptr inbounds %struct.of_dpa_flow_pkt_fields, ptr %40, i32 0, i32 5
  store ptr %add.ptr42, ptr %ipv6hdr, align 8
  br label %sw.epilog

sw.epilog:                                        ; preds = %if.end40, %if.end30, %if.end20
  %41 = load ptr, ptr %fc.addr, align 8
  call void @of_dpa_flow_pkt_hdr_reset(ptr noundef %41)
  %42 = load ptr, ptr %fields, align 8
  %h_proto43 = getelementptr inbounds %struct.of_dpa_flow_pkt_fields, ptr %42, i32 0, i32 2
  %43 = load ptr, ptr %h_proto43, align 8
  %add.ptr44 = getelementptr i16, ptr %43, i64 1
  %44 = load ptr, ptr %fc.addr, align 8
  %iov45 = getelementptr inbounds %struct.of_dpa_flow_context, ptr %44, i32 0, i32 2
  %45 = load ptr, ptr %iov45, align 8
  %arrayidx = getelementptr %struct.iovec, ptr %45, i64 2
  %iov_base46 = getelementptr inbounds %struct.iovec, ptr %arrayidx, i32 0, i32 0
  store ptr %add.ptr44, ptr %iov_base46, align 8
  %46 = load ptr, ptr %iov.addr, align 8
  %iov_len47 = getelementptr inbounds %struct.iovec, ptr %46, i32 0, i32 1
  %47 = load i64, ptr %iov_len47, align 8
  %48 = load ptr, ptr %fc.addr, align 8
  %iov48 = getelementptr inbounds %struct.of_dpa_flow_context, ptr %48, i32 0, i32 2
  %49 = load ptr, ptr %iov48, align 8
  %arrayidx49 = getelementptr %struct.iovec, ptr %49, i64 0
  %iov_len50 = getelementptr inbounds %struct.iovec, ptr %arrayidx49, i32 0, i32 1
  %50 = load i64, ptr %iov_len50, align 8
  %sub = sub i64 %47, %50
  %51 = load ptr, ptr %fc.addr, align 8
  %iov51 = getelementptr inbounds %struct.of_dpa_flow_context, ptr %51, i32 0, i32 2
  %52 = load ptr, ptr %iov51, align 8
  %arrayidx52 = getelementptr %struct.iovec, ptr %52, i64 1
  %iov_len53 = getelementptr inbounds %struct.iovec, ptr %arrayidx52, i32 0, i32 1
  %53 = load i64, ptr %iov_len53, align 8
  %sub54 = sub i64 %sub, %53
  %54 = load ptr, ptr %fc.addr, align 8
  %iov55 = getelementptr inbounds %struct.of_dpa_flow_context, ptr %54, i32 0, i32 2
  %55 = load ptr, ptr %iov55, align 8
  %arrayidx56 = getelementptr %struct.iovec, ptr %55, i64 2
  %iov_len57 = getelementptr inbounds %struct.iovec, ptr %arrayidx56, i32 0, i32 1
  store i64 %sub54, ptr %iov_len57, align 8
  store i32 1, ptr %i, align 4
  br label %for.cond

for.cond:                                         ; preds = %for.inc, %sw.epilog
  %56 = load i32, ptr %i, align 4
  %57 = load i32, ptr %iovcnt.addr, align 4
  %cmp58 = icmp slt i32 %56, %57
  br i1 %cmp58, label %for.body, label %for.end

for.body:                                         ; preds = %for.cond
  %58 = load ptr, ptr %fc.addr, align 8
  %iov60 = getelementptr inbounds %struct.of_dpa_flow_context, ptr %58, i32 0, i32 2
  %59 = load ptr, ptr %iov60, align 8
  %60 = load i32, ptr %i, align 4
  %add61 = add i32 %60, 2
  %idxprom = sext i32 %add61 to i64
  %arrayidx62 = getelementptr %struct.iovec, ptr %59, i64 %idxprom
  %61 = load ptr, ptr %iov.addr, align 8
  %62 = load i32, ptr %i, align 4
  %idxprom63 = sext i32 %62 to i64
  %arrayidx64 = getelementptr %struct.iovec, ptr %61, i64 %idxprom63
  call void @llvm.memcpy.p0.p0.i64(ptr align 8 %arrayidx62, ptr align 8 %arrayidx64, i64 16, i1 false)
  br label %for.inc

for.inc:                                          ; preds = %for.body
  %63 = load i32, ptr %i, align 4
  %inc = add i32 %63, 1
  store i32 %inc, ptr %i, align 4
  br label %for.cond, !llvm.loop !8

for.end:                                          ; preds = %for.cond
  %64 = load i32, ptr %iovcnt.addr, align 4
  %add65 = add i32 %64, 2
  %65 = load ptr, ptr %fc.addr, align 8
  %iovcnt66 = getelementptr inbounds %struct.of_dpa_flow_context, ptr %65, i32 0, i32 3
  store i32 %add65, ptr %iovcnt66, align 8
  br label %return

return:                                           ; preds = %for.end, %if.then38, %if.then28, %if.then13, %if.then
  ret void
}

; Function Attrs: nounwind sspstrong uwtable
define internal i64 @of_dpa_ig(ptr noundef %world, i32 noundef %pport, ptr noundef %iov, i32 noundef %iovcnt) #0 {
entry:
  %world.addr = alloca ptr, align 8
  %pport.addr = alloca i32, align 4
  %iov.addr = alloca ptr, align 8
  %iovcnt.addr = alloca i32, align 4
  %iov_copy = alloca ptr, align 8
  %fc = alloca %struct.of_dpa_flow_context, align 8
  store ptr %world, ptr %world.addr, align 8
  store i32 %pport, ptr %pport.addr, align 4
  store ptr %iov, ptr %iov.addr, align 8
  store i32 %iovcnt, ptr %iovcnt.addr, align 4
  %0 = load i32, ptr %iovcnt.addr, align 4
  %add = add i32 %0, 2
  %conv = sext i32 %add to i64
  %call = call noalias ptr @g_malloc_n(i64 noundef %conv, i64 noundef 16) #14
  store ptr %call, ptr %iov_copy, align 8
  call void @llvm.memset.p0.i64(ptr align 8 %fc, i8 0, i64 152, i1 false)
  %in_pport = getelementptr inbounds %struct.of_dpa_flow_context, ptr %fc, i32 0, i32 0
  %1 = load i32, ptr %pport.addr, align 4
  store i32 %1, ptr %in_pport, align 8
  %iov1 = getelementptr inbounds %struct.of_dpa_flow_context, ptr %fc, i32 0, i32 2
  %2 = load ptr, ptr %iov_copy, align 8
  store ptr %2, ptr %iov1, align 8
  %iovcnt2 = getelementptr inbounds %struct.of_dpa_flow_context, ptr %fc, i32 0, i32 3
  %3 = load i32, ptr %iovcnt.addr, align 4
  %add3 = add i32 %3, 2
  store i32 %add3, ptr %iovcnt2, align 8
  %of_dpa = getelementptr inbounds %struct.of_dpa_flow_context, ptr %fc, i32 0, i32 7
  %4 = load ptr, ptr %world.addr, align 8
  %call4 = call ptr @world_private(ptr noundef %4)
  store ptr %call4, ptr %of_dpa, align 8
  %5 = load ptr, ptr %iov.addr, align 8
  %6 = load i32, ptr %iovcnt.addr, align 4
  call void @of_dpa_flow_pkt_parse(ptr noundef %fc, ptr noundef %5, i32 noundef %6)
  call void @of_dpa_flow_ig_tbl(ptr noundef %fc, i32 noundef 0)
  %7 = load ptr, ptr %iov.addr, align 8
  %8 = load i32, ptr %iovcnt.addr, align 4
  %call5 = call i64 @iov_size(ptr noundef %7, i32 noundef %8)
  call void @g_autoptr_cleanup_generic_gfree(ptr noundef %iov_copy)
  ret i64 %call5
}