; Function Attrs: nounwind sspstrong uwtable
define internal i64 @of_dpa_ig(ptr noundef %world, i32 noundef %pport, ptr noundef %iov, i32 noundef %iovcnt) #0 {
entry:
  %fc = alloca %struct.of_dpa_flow_context, align 8
  %add = add i32 %iovcnt, 2
  %conv = sext i32 %add to i64
  %call = tail call noalias ptr @g_malloc_n(i64 noundef %conv, i64 noundef 16) #21
  call void @llvm.memset.p0.i64(ptr noundef nonnull align 8 dereferenceable(152) %fc, i8 0, i64 152, i1 false)
  store i32 %pport, ptr %fc, align 8
  %iov1 = getelementptr inbounds nuw i8, ptr %fc, i64 8
  store ptr %call, ptr %iov1, align 8
  %iovcnt2 = getelementptr inbounds nuw i8, ptr %fc, i64 16
  store i32 %add, ptr %iovcnt2, align 8
  %of_dpa = getelementptr inbounds nuw i8, ptr %fc, i64 48
  %call4 = tail call ptr @world_private(ptr noundef %world) #18
  store ptr %call4, ptr %of_dpa, align 8
  %iov_len.i = getelementptr inbounds nuw i8, ptr %iov, i64 8
  %0 = load i64, ptr %iov_len.i, align 8
  %cmp.i = icmp ult i64 %0, 14
  %.sink.i.sroa.gep = getelementptr inbounds nuw i8, ptr %fc, i64 88
  %.sink.i.sroa.gep5 = getelementptr inbounds nuw i8, ptr %fc, i64 96
  br i1 %cmp.i, label %of_dpa_flow_pkt_parse.exit, label %if.end.i

if.end.i:                                         ; preds = %entry
  %1 = load ptr, ptr %iov, align 8
  %ethhdr.i = getelementptr inbounds nuw i8, ptr %fc, i64 64
  store ptr %1, ptr %ethhdr.i, align 8
  %h_proto.i = getelementptr inbounds nuw i8, ptr %1, i64 12
  %h_proto3.i = getelementptr inbounds nuw i8, ptr %fc, i64 72
  store ptr %h_proto.i, ptr %h_proto3.i, align 8
  %2 = load i16, ptr %h_proto.i, align 2
  %call5.i = tail call zeroext i16 @ntohs(i16 noundef zeroext %2) #20
  %cmp6.i = icmp eq i16 %call5.i, -32512
  br i1 %cmp6.i, label %if.then8.i, label %if.end20.i

if.then8.i:                                       ; preds = %if.end.i
  %cmp11.i = icmp ult i64 %0, 18
  br i1 %cmp11.i, label %of_dpa_flow_pkt_parse.exit, label %if.end15.i

if.end15.i:                                       ; preds = %if.then8.i
  %add.ptr.i = getelementptr i8, ptr %1, i64 14
  %vlanhdr.i = getelementptr inbounds nuw i8, ptr %fc, i64 80
  store ptr %add.ptr.i, ptr %vlanhdr.i, align 8
  %h_proto18.i = getelementptr i8, ptr %1, i64 16
  store ptr %h_proto18.i, ptr %h_proto3.i, align 8
  %.pre.i = load i16, ptr %h_proto18.i, align 2
  br label %if.end20.i

if.end20.i:                                       ; preds = %if.end15.i, %if.end.i
  %3 = phi ptr [ %add.ptr.i, %if.end15.i ], [ null, %if.end.i ]
  %4 = phi i16 [ %.pre.i, %if.end15.i ], [ %2, %if.end.i ]
  %5 = phi i64 [ 16, %if.end15.i ], [ 12, %if.end.i ]
  %sofar.0.i = phi i64 [ 18, %if.end15.i ], [ 14, %if.end.i ]
  %call22.i = tail call zeroext i16 @ntohs(i16 noundef zeroext %4) #20
  switch i16 %call22.i, label %sw.epilog.i [
    i16 2048, label %sw.bb.i
    i16 -31011, label %sw.bb33.i
  ]

sw.bb.i:                                          ; preds = %if.end20.i
  %add24.i = add nuw nsw i64 %sofar.0.i, 20
  %cmp26.i = icmp ult i64 %0, %add24.i
  br i1 %cmp26.i, label %of_dpa_flow_pkt_parse.exit, label %sw.epilog.sink.split.i

sw.bb33.i:                                        ; preds = %if.end20.i
  %add34.i = add nuw nsw i64 %sofar.0.i, 40
  %cmp36.i = icmp ult i64 %0, %add34.i
  br i1 %cmp36.i, label %of_dpa_flow_pkt_parse.exit, label %sw.epilog.sink.split.i

sw.epilog.sink.split.i:                           ; preds = %sw.bb33.i, %sw.bb.i
  %.sink.i.sroa.phi = phi ptr [ %.sink.i.sroa.gep, %sw.bb.i ], [ %.sink.i.sroa.gep5, %sw.bb33.i ]
  %6 = getelementptr i8, ptr %1, i64 %5
  %add.ptr42.i = getelementptr i8, ptr %6, i64 2
  store ptr %add.ptr42.i, ptr %.sink.i.sroa.phi, align 8
  br label %sw.epilog.i

sw.epilog.i:                                      ; preds = %sw.epilog.sink.split.i, %if.end20.i
  %7 = getelementptr i8, ptr %1, i64 %5
  store ptr %1, ptr %call, align 8
  %iov_len.i.i = getelementptr inbounds nuw i8, ptr %call, i64 8
  store i64 14, ptr %iov_len.i.i, align 8
  %arrayidx5.i.i = getelementptr i8, ptr %call, i64 16
  store ptr %3, ptr %arrayidx5.i.i, align 8
  %tobool.not.i.i = icmp eq ptr %3, null
  %cond.i.i = select i1 %tobool.not.i.i, i64 0, i64 4
  %iov_len10.i.i = getelementptr i8, ptr %call, i64 24
  store i64 %cond.i.i, ptr %iov_len10.i.i, align 8
  %add.ptr44.i = getelementptr i8, ptr %7, i64 2
  %arrayidx.i = getelementptr i8, ptr %call, i64 32
  store ptr %add.ptr44.i, ptr %arrayidx.i, align 8
  %8 = add nuw nsw i64 %cond.i.i, 14
  %sub54.i = sub i64 %0, %8
  %iov_len57.i = getelementptr i8, ptr %call, i64 40
  store i64 %sub54.i, ptr %iov_len57.i, align 8
  %cmp5840.i = icmp sgt i32 %iovcnt, 1
  br i1 %cmp5840.i, label %for.body.preheader.i, label %for.end.i

for.body.preheader.i:                             ; preds = %sw.epilog.i
  %wide.trip.count.i = zext nneg i32 %iovcnt to i64
  br label %for.body.i

for.body.i:                                       ; preds = %for.body.i, %for.body.preheader.i
  %indvars.iv.i = phi i64 [ 1, %for.body.preheader.i ], [ %indvars.iv.next.i, %for.body.i ]
  %9 = shl i64 %indvars.iv.i, 32
  %sext.i = add nuw i64 %9, 8589934592
  %10 = ashr exact i64 %sext.i, 28
  %arrayidx62.i = getelementptr i8, ptr %call, i64 %10
  %arrayidx64.i = getelementptr %struct.iovec, ptr %iov, i64 %indvars.iv.i
  tail call void @llvm.memcpy.p0.p0.i64(ptr noundef nonnull align 8 dereferenceable(16) %arrayidx62.i, ptr noundef nonnull readonly align 8 dereferenceable(16) %arrayidx64.i, i64 16, i1 false)
  %indvars.iv.next.i = add nuw nsw i64 %indvars.iv.i, 1
  %exitcond.not.i = icmp eq i64 %indvars.iv.next.i, %wide.trip.count.i
  br i1 %exitcond.not.i, label %for.end.i, label %for.body.i, !llvm.loop !8

for.end.i:                                        ; preds = %for.body.i, %sw.epilog.i
  store i32 %add, ptr %iovcnt2, align 8
  br label %of_dpa_flow_pkt_parse.exit

of_dpa_flow_pkt_parse.exit:                       ; preds = %entry, %if.then8.i, %sw.bb.i, %sw.bb33.i, %for.end.i
  call fastcc void @of_dpa_flow_ig_tbl(ptr noundef nonnull %fc, i32 noundef 0)
  %call5 = call i64 @iov_size(ptr noundef nonnull %iov, i32 noundef %iovcnt) #18
  call void @g_free(ptr noundef %call) #18
  ret i64 %call5
}